; Function Attrs: mustprogress uwtable
define void @_ZN6LibRaw11checkCancelEv(ptr noundef nonnull align 8 captures(none) dereferenceable(767680) %0) local_unnamed_addr #4 align 2 {
  %2 = getelementptr inbounds nuw i8, ptr %0, i64 767640
  %3 = atomicrmw xchg ptr %2, i64 0 seq_cst, align 8
  %.not = icmp eq i64 %3, 0
  br i1 %.not, label %6, label %4

4:                                                ; preds = %1
  %5 = tail call ptr @__cxa_allocate_exception(i64 4) #30
  store i32 6, ptr %5, align 16, !tbaa !20
  tail call void @__cxa_throw(ptr nonnull %5, ptr nonnull @_ZTI17LibRaw_exceptions, ptr null) #31
  unreachable

6:                                                ; preds = %1
  ret void
}